(i__main__
RenderState
p0
(dp1
S'obj_space'
p2
ccopy_reg
_reconstructor
p3
(ccapdl.Allocator
ObjectAllocator
p4
c__builtin__
object
p5
Ntp6
Rp7
(dp8
S'labels'
p9
ccollections
defaultdict
p10
(c__builtin__
set
p11
tp12
Rp13
g3
(cplyplus.common
TokValue
p14
c__builtin__
unicode
p15
Vsigntx
p16
tp17
Rp18
(dp19
S'column'
p20
I26
sS'index'
p21
I97
sS'line'
p22
I25
sS'type'
p23
g3
(cplyplus.common
Str
p24
g15
VID
p25
tp26
Rp27
sS'pos_in_stream'
p28
I630
sbg11
((lp29
g3
(ccapdl.Object
Frame
p30
g5
Ntp31
Rp32
(dp33
S'fill'
p34
V
p35
sS'paddr'
p36
NsS'name'
p37
Vstack__camkes_stack_signtx_0_fault_handler_0000_0_signtx_obj
p38
sS'size'
p39
I4096
sbag3
(g30
g5
Ntp40
Rp41
(dp42
g34
g35
sg36
Nsg37
Vsigntx_frame__camkes_ipc_buffer_signtx_0_fault_handler_0000
p43
sg39
I4096
sbag3
(g30
g5
Ntp44
Rp45
(dp46
g34
g35
sg36
Nsg37
Vstack__camkes_stack_signtx_signtx_iface_0000_1_signtx_obj
p47
sg39
I4096
sbag3
(g30
g5
Ntp48
Rp49
(dp50
g34
g35
sg36
Nsg37
Vstack__camkes_stack_signtx_0_control_1_signtx_obj
p51
sg39
I4096
sbag3
(g30
g5
Ntp52
Rp53
(dp54
g34
g35
sg36
Nsg37
Vstack__camkes_stack_signtx_signtx_iface_0000_2_signtx_obj
p55
sg39
I4096
sbag3
(g30
g5
Ntp56
Rp57
(dp58
g34
g35
sg36
Nsg37
Vstack__camkes_stack_signtx_0_control_0_signtx_obj
p59
sg39
I4096
sbag3
(g30
g5
Ntp60
Rp61
(dp62
g34
g35
sg36
Nsg37
Vstack__camkes_stack_signtx_0_fault_handler_0000_1_signtx_obj
p63
sg39
I4096
sbag3
(ccapdl.Object
TCB
p64
g5
Ntp65
Rp66
(dp67
S'domain'
p68
Nsg37
Vsigntx_6_0_fault_handler_15_0000_tcb
p69
sS'prio'
p70
I254
sS'ip'
p71
I0
sS'fault_ep_slot'
p72
NsS'sp'
p73
I0
sS'elf'
p74
g35
sS'init'
p75
(lp76
sS'affinity'
p77
I0
sS'slots'
p78
(dp79
S'ipc_buffer_slot'
p80
g3
(ccapdl.Cap
Cap
p81
g5
Ntp82
Rp83
(dp84
S'grant'
p85
I00
sS'read'
p86
I01
sS'mapping_slot'
p87
NsS'guard_size'
p88
I0
sS'write'
p89
I01
sS'referent'
p90
g41
sS'guard'
p91
I0
sS'cached'
p92
I01
sS'mapping_container'
p93
NsS'badge'
p94
NsS'ports'
p95
NsbssS'max_prio'
p96
I254
sS'addr'
p97
I0
sbag3
(g30
g5
Ntp98
Rp99
(dp100
g34
g35
sg36
Nsg37
Vstack__camkes_stack_signtx_0_control_3_signtx_obj
p101
sg39
I4096
sbag3
(g30
g5
Ntp102
Rp103
(dp104
g34
g35
sg36
Nsg37
Vstack__camkes_stack_signtx_0_control_2_signtx_obj
p105
sg39
I4096
sbag3
(ccapdl.Object
CNode
p106
g5
Ntp107
Rp108
(dp109
g78
(dp110
I1
g3
(g81
g5
Ntp111
Rp112
(dp113
g85
I00
sg86
I00
sg87
Nsg88
I0
sg89
I00
sg90
g3
(g64
g5
Ntp114
Rp115
(dp116
g68
Nsg37
Vsigntx_6_0_control_9_tcb
p117
sg70
I254
sg71
I0
sg72
I2
sg73
I0
sg74
g35
sg75
(lp118
sg77
I0
sg78
(dp119
g80
g3
(g81
g5
Ntp120
Rp121
(dp122
g85
I00
sg86
I01
sg87
Nsg88
I0
sg89
I01
sg90
g3
(g30
g5
Ntp123
Rp124
(dp125
g34
g35
sg36
Nsg37
Vsigntx_frame__camkes_ipc_buffer_signtx_0_control
p126
sg39
I4096
sbsg91
I0
sg92
I01
sg93
Nsg94
Nsg95
Nsbssg96
I254
sg97
I0
sbsg91
I0
sg92
I01
sg93
Nsg94
Nsg95
NsbsI2
g3
(g81
g5
Ntp127
Rp128
(dp129
g85
I01
sg86
I01
sg87
Nsg88
I0
sg89
I01
sg90
g3
(ccapdl.Object
Endpoint
p130
g5
Ntp131
Rp132
(dp133
g37
Vsigntx_fault_ep
p134
sbsg91
I0
sg92
I01
sg93
Nsg94
I1
sg95
NsbsI3
g3
(g81
g5
Ntp135
Rp136
(dp137
g85
I00
sg86
I00
sg87
Nsg88
I0
sg89
I00
sg90
g3
(g64
g5
Ntp138
Rp139
(dp140
g68
Nsg37
Vsigntx_6_signtx_iface_12_0000_tcb
p141
sg70
I254
sg71
I0
sg72
I4
sg73
I0
sg74
g35
sg75
(lp142
sg77
I0
sg78
(dp143
g80
g3
(g81
g5
Ntp144
Rp145
(dp146
g85
I00
sg86
I01
sg87
Nsg88
I0
sg89
I01
sg90
g3
(g30
g5
Ntp147
Rp148
(dp149
g34
g35
sg36
Nsg37
Vsigntx_frame__camkes_ipc_buffer_signtx_signtx_iface_0000
p150
sg39
I4096
sbsg91
I0
sg92
I01
sg93
Nsg94
Nsg95
Nsbssg96
I254
sg97
I0
sbsg91
I0
sg92
I01
sg93
Nsg94
Nsg95
NsbsI4
g3
(g81
g5
Ntp151
Rp152
(dp153
g85
I01
sg86
I01
sg87
Nsg88
I0
sg89
I01
sg90
g132
sg91
I0
sg92
I01
sg93
Nsg94
I3
sg95
NsbsI5
g3
(g81
g5
Ntp154
Rp155
(dp156
g85
I00
sg86
I00
sg87
Nsg88
I0
sg89
I00
sg90
g66
sg91
I0
sg92
I01
sg93
Nsg94
Nsg95
NsbsI6
g3
(g81
g5
Ntp157
Rp158
(dp159
g85
I01
sg86
I01
sg87
Nsg88
I0
sg89
I01
sg90
g132
sg91
I0
sg92
I01
sg93
Nsg94
Nsg95
NsbsI7
g3
(g81
g5
Ntp160
Rp161
(dp162
g85
I00
sg86
I01
sg87
Nsg88
I0
sg89
I01
sg90
g3
(g130
g5
Ntp163
Rp164
(dp165
g37
Vsigntx_pre_init_ep
p166
sbsg91
I0
sg92
I01
sg93
Nsg94
Nsg95
NsbsI8
g3
(g81
g5
Ntp167
Rp168
(dp169
g85
I00
sg86
I01
sg87
Nsg88
I0
sg89
I01
sg90
g3
(g130
g5
Ntp170
Rp171
(dp172
g37
Vsigntx_interface_init_ep
p173
sbsg91
I0
sg92
I01
sg93
Nsg94
Nsg95
NsbsI9
g3
(g81
g5
Ntp174
Rp175
(dp176
g85
I00
sg86
I01
sg87
Nsg88
I0
sg89
I01
sg90
g3
(g130
g5
Ntp177
Rp178
(dp179
g37
Vsigntx_post_init_ep
p180
sbsg91
I0
sg92
I01
sg93
Nsg94
Nsg95
NsbsI10
g3
(g81
g5
Ntp181
Rp182
(dp183
g85
I01
sg86
I00
sg87
Nsg88
I0
sg89
I01
sg90
g3
(g130
g5
Ntp184
Rp185
(dp186
g37
Vconn2.conn5_ep
p187
sbsg91
I0
sg92
I01
sg93
Nsg94
I2
sg95
NsbsI11
g3
(g81
g5
Ntp188
Rp189
(dp190
g85
I01
sg86
I00
sg87
Nsg88
I0
sg89
I01
sg90
g3
(g130
g5
Ntp191
Rp192
(dp193
g37
Vconn1.conn6_ep
p194
sbsg91
I0
sg92
I01
sg93
Nsg94
I2
sg95
NsbsI12
g3
(g81
g5
Ntp195
Rp196
(dp197
g85
I00
sg86
I01
sg87
Nsg88
I0
sg89
I01
sg90
g3
(g130
g5
Ntp198
Rp199
(dp200
g37
Vconn4.conn8_ep
p201
sbsg91
I0
sg92
I01
sg93
Nsg94
Nsg95
NsbsI13
g3
(g81
g5
Ntp202
Rp203
(dp204
g85
I00
sg86
I00
sg87
Nsg88
I0
sg89
I01
sg90
g108
sg91
I0
sg92
I01
sg93
Nsg94
Nsg95
NsbsI14
NssS'update_guard_size_caps'
p205
(lp206
g203
asg37
Vsigntx_cnode
p207
sS'size_bits'
p208
Vauto
p209
sbag3
(g30
g5
Ntp210
Rp211
(dp212
g34
g35
sg36
Nsg37
Vstack__camkes_stack_signtx_signtx_iface_0000_0_signtx_obj
p213
sg39
I4096
sbag139
ag3
(ccapdl.Object
PML4
p214
g5
Ntp215
Rp216
(dp217
g78
(dp218
sg37
Vsigntx_group_bin_pd
p219
sbag3
(g30
g5
Ntp220
Rp221
(dp222
g34
g35
sg36
Nsg37
Vstack__camkes_stack_signtx_0_fault_handler_0000_3_signtx_obj
p223
sg39
I4096
sbag148
ag132
ag115
ag3
(g30
g5
Ntp224
Rp225
(dp226
g34
g35
sg36
Nsg37
Vstack__camkes_stack_signtx_0_fault_handler_0000_2_signtx_obj
p227
sg39
I4096
sbag124
ag164
ag171
ag3
(g30
g5
Ntp228
Rp229
(dp230
g34
g35
sg36
Nsg37
Vstack__camkes_stack_signtx_signtx_iface_0000_3_signtx_obj
p231
sg39
I4096
sbag178
atp232
Rp233
sVconn1.conn6
p234
g11
((lp235
g192
atp236
Rp237
sg3
(g14
g15
Vmodchk
p238
tp239
Rp240
(dp241
g20
I26
sg21
I81
sg22
I23
sg23
g27
sg28
I566
sbg11
((lp242
g3
(g30
g5
Ntp243
Rp244
(dp245
g34
g35
sg36
Nsg37
Vstack__camkes_stack_modchk_0_control_0_modchk_obj
p246
sg39
I4096
sbag3
(g30
g5
Ntp247
Rp248
(dp249
g34
g35
sg36
Nsg37
Vstack__camkes_stack_modchk_0_control_2_modchk_obj
p250
sg39
I4096
sbag3
(g30
g5
Ntp251
Rp252
(dp253
g34
g35
sg36
Nsg37
Vstack__camkes_stack_modchk_modchk_iface_0000_0_modchk_obj
p254
sg39
I4096
sbag3
(g106
g5
Ntp255
Rp256
(dp257
g78
(dp258
I1
g3
(g81
g5
Ntp259
Rp260
(dp261
g85
I00
sg86
I00
sg87
Nsg88
I0
sg89
I00
sg90
g3
(g64
g5
Ntp262
Rp263
(dp264
g68
Nsg37
Vmodchk_6_0_control_9_tcb
p265
sg70
I254
sg71
I0
sg72
I2
sg73
I0
sg74
g35
sg75
(lp266
sg77
I0
sg78
(dp267
g80
g3
(g81
g5
Ntp268
Rp269
(dp270
g85
I00
sg86
I01
sg87
Nsg88
I0
sg89
I01
sg90
g3
(g30
g5
Ntp271
Rp272
(dp273
g34
g35
sg36
Nsg37
Vmodchk_frame__camkes_ipc_buffer_modchk_0_control
p274
sg39
I4096
sbsg91
I0
sg92
I01
sg93
Nsg94
Nsg95
Nsbssg96
I254
sg97
I0
sbsg91
I0
sg92
I01
sg93
Nsg94
Nsg95
NsbsI2
g3
(g81
g5
Ntp275
Rp276
(dp277
g85
I01
sg86
I01
sg87
Nsg88
I0
sg89
I01
sg90
g3
(g130
g5
Ntp278
Rp279
(dp280
g37
Vmodchk_fault_ep
p281
sbsg91
I0
sg92
I01
sg93
Nsg94
I1
sg95
NsbsI3
g3
(g81
g5
Ntp282
Rp283
(dp284
g85
I00
sg86
I00
sg87
Nsg88
I0
sg89
I00
sg90
g3
(g64
g5
Ntp285
Rp286
(dp287
g68
Nsg37
Vmodchk_6_modchk_iface_12_0000_tcb
p288
sg70
I254
sg71
I0
sg72
I4
sg73
I0
sg74
g35
sg75
(lp289
sg77
I0
sg78
(dp290
g80
g3
(g81
g5
Ntp291
Rp292
(dp293
g85
I00
sg86
I01
sg87
Nsg88
I0
sg89
I01
sg90
g3
(g30
g5
Ntp294
Rp295
(dp296
g34
g35
sg36
Nsg37
Vmodchk_frame__camkes_ipc_buffer_modchk_modchk_iface_0000
p297
sg39
I4096
sbsg91
I0
sg92
I01
sg93
Nsg94
Nsg95
Nsbssg96
I254
sg97
I0
sbsg91
I0
sg92
I01
sg93
Nsg94
Nsg95
NsbsI4
g3
(g81
g5
Ntp298
Rp299
(dp300
g85
I01
sg86
I01
sg87
Nsg88
I0
sg89
I01
sg90
g279
sg91
I0
sg92
I01
sg93
Nsg94
I3
sg95
NsbsI5
g3
(g81
g5
Ntp301
Rp302
(dp303
g85
I00
sg86
I00
sg87
Nsg88
I0
sg89
I00
sg90
g3
(g64
g5
Ntp304
Rp305
(dp306
g68
Nsg37
Vmodchk_6_0_fault_handler_15_0000_tcb
p307
sg70
I254
sg71
I0
sg72
Nsg73
I0
sg74
g35
sg75
(lp308
sg77
I0
sg78
(dp309
g80
g3
(g81
g5
Ntp310
Rp311
(dp312
g85
I00
sg86
I01
sg87
Nsg88
I0
sg89
I01
sg90
g3
(g30
g5
Ntp313
Rp314
(dp315
g34
g35
sg36
Nsg37
Vmodchk_frame__camkes_ipc_buffer_modchk_0_fault_handler_0000
p316
sg39
I4096
sbsg91
I0
sg92
I01
sg93
Nsg94
Nsg95
Nsbssg96
I254
sg97
I0
sbsg91
I0
sg92
I01
sg93
Nsg94
Nsg95
NsbsI6
g3
(g81
g5
Ntp317
Rp318
(dp319
g85
I01
sg86
I01
sg87
Nsg88
I0
sg89
I01
sg90
g279
sg91
I0
sg92
I01
sg93
Nsg94
Nsg95
NsbsI7
g3
(g81
g5
Ntp320
Rp321
(dp322
g85
I00
sg86
I01
sg87
Nsg88
I0
sg89
I01
sg90
g3
(g130
g5
Ntp323
Rp324
(dp325
g37
Vmodchk_pre_init_ep
p326
sbsg91
I0
sg92
I01
sg93
Nsg94
Nsg95
NsbsI8
g3
(g81
g5
Ntp327
Rp328
(dp329
g85
I00
sg86
I01
sg87
Nsg88
I0
sg89
I01
sg90
g3
(g130
g5
Ntp330
Rp331
(dp332
g37
Vmodchk_interface_init_ep
p333
sbsg91
I0
sg92
I01
sg93
Nsg94
Nsg95
NsbsI9
g3
(g81
g5
Ntp334
Rp335
(dp336
g85
I00
sg86
I01
sg87
Nsg88
I0
sg89
I01
sg90
g3
(g130
g5
Ntp337
Rp338
(dp339
g37
Vmodchk_post_init_ep
p340
sbsg91
I0
sg92
I01
sg93
Nsg94
Nsg95
NsbsI10
g3
(g81
g5
Ntp341
Rp342
(dp343
g85
I00
sg86
I01
sg87
Nsg88
I0
sg89
I01
sg90
g192
sg91
I0
sg92
I01
sg93
Nsg94
Nsg95
NsbsI11
g3
(g81
g5
Ntp344
Rp345
(dp346
g85
I00
sg86
I00
sg87
Nsg88
I0
sg89
I01
sg90
g256
sg91
I0
sg92
I01
sg93
Nsg94
Nsg95
NsbsI12
NsI13
g3
(g81
g5
Ntp347
Rp348
(dp349
g85
I01
sg86
I00
sg87
Nsg88
I0
sg89
I01
sg90
g3
(g130
g5
Ntp350
Rp351
(dp352
g37
Vconn3.conn7_ep
p353
sbsg91
I0
sg92
I01
sg93
Nsg94
I2
sg95
NsbsI14
g3
(g81
g5
Ntp354
Rp355
(dp356
g85
I01
sg86
I00
sg87
Nsg88
I0
sg89
I01
sg90
g199
sg91
I0
sg92
I01
sg93
Nsg94
I2
sg95
Nsbssg205
(lp357
g345
asg37
Vmodchk_cnode
p358
sg208
g209
sbag3
(g30
g5
Ntp359
Rp360
(dp361
g34
g35
sg36
Nsg37
Vstack__camkes_stack_modchk_modchk_iface_0000_1_modchk_obj
p362
sg39
I4096
sbag3
(g30
g5
Ntp363
Rp364
(dp365
g34
g35
sg36
Nsg37
Vstack__camkes_stack_modchk_0_fault_handler_0000_0_modchk_obj
p366
sg39
I4096
sbag3
(g30
g5
Ntp367
Rp368
(dp369
g34
g35
sg36
Nsg37
Vstack__camkes_stack_modchk_modchk_iface_0000_2_modchk_obj
p370
sg39
I4096
sbag3
(g214
g5
Ntp371
Rp372
(dp373
g78
(dp374
sg37
Vmodchk_group_bin_pd
p375
sbag272
ag324
ag331
ag338
ag3
(g30
g5
Ntp376
Rp377
(dp378
g34
g35
sg36
Nsg37
Vstack__camkes_stack_modchk_modchk_iface_0000_3_modchk_obj
p379
sg39
I4096
sbag305
ag3
(g30
g5
Ntp380
Rp381
(dp382
g34
g35
sg36
Nsg37
Vstack__camkes_stack_modchk_0_fault_handler_0000_1_modchk_obj
p383
sg39
I4096
sbag3
(g30
g5
Ntp384
Rp385
(dp386
g34
g35
sg36
Nsg37
Vstack__camkes_stack_modchk_0_fault_handler_0000_3_modchk_obj
p387
sg39
I4096
sbag3
(g30
g5
Ntp388
Rp389
(dp390
g34
g35
sg36
Nsg37
Vstack__camkes_stack_modchk_0_fault_handler_0000_2_modchk_obj
p391
sg39
I4096
sbag3
(g30
g5
Ntp392
Rp393
(dp394
g34
g35
sg36
Nsg37
Vstack__camkes_stack_modchk_0_control_3_modchk_obj
p395
sg39
I4096
sbag314
ag279
ag3
(g30
g5
Ntp396
Rp397
(dp398
g34
g35
sg36
Nsg37
Vstack__camkes_stack_modchk_0_control_1_modchk_obj
p399
sg39
I4096
sbag263
ag286
ag295
atp400
Rp401
sg3
(g14
g15
Vcrypto
p402
tp403
Rp404
(dp405
g20
I26
sg21
I73
sg22
I22
sg23
g27
sg28
I533
sbg11
((lp406
g3
(g130
g5
Ntp407
Rp408
(dp409
g37
Vcrypto_fault_ep
p410
sbag3
(g30
g5
Ntp411
Rp412
(dp413
g34
g35
sg36
Nsg37
Vstack__camkes_stack_crypto_0_control_1_crypto_obj
p414
sg39
I4096
sbag3
(g30
g5
Ntp415
Rp416
(dp417
g34
g35
sg36
Nsg37
Vcrypto_frame__camkes_ipc_buffer_crypto_crypto_iface_0000
p418
sg39
I4096
sbag3
(g64
g5
Ntp419
Rp420
(dp421
g68
Nsg37
Vcrypto_6_crypto_iface_12_0000_tcb
p422
sg70
I254
sg71
I0
sg72
I4
sg73
I0
sg74
g35
sg75
(lp423
sg77
I0
sg78
(dp424
g80
g3
(g81
g5
Ntp425
Rp426
(dp427
g85
I00
sg86
I01
sg87
Nsg88
I0
sg89
I01
sg90
g416
sg91
I0
sg92
I01
sg93
Nsg94
Nsg95
Nsbssg96
I254
sg97
I0
sbag3
(g30
g5
Ntp428
Rp429
(dp430
g34
g35
sg36
Nsg37
Vstack__camkes_stack_crypto_0_control_3_crypto_obj
p431
sg39
I4096
sbag3
(g30
g5
Ntp432
Rp433
(dp434
g34
g35
sg36
Nsg37
Vstack__camkes_stack_crypto_0_control_2_crypto_obj
p435
sg39
I4096
sbag3
(g130
g5
Ntp436
Rp437
(dp438
g37
Vcrypto_interface_init_ep
p439
sbag3
(g130
g5
Ntp440
Rp441
(dp442
g37
Vcrypto_pre_init_ep
p443
sbag3
(g30
g5
Ntp444
Rp445
(dp446
g34
g35
sg36
Nsg37
Vstack__camkes_stack_crypto_crypto_iface_0000_1_crypto_obj
p447
sg39
I4096
sbag3
(g30
g5
Ntp448
Rp449
(dp450
g34
g35
sg36
Nsg37
Vstack__camkes_stack_crypto_crypto_iface_0000_0_crypto_obj
p451
sg39
I4096
sbag3
(g30
g5
Ntp452
Rp453
(dp454
g34
g35
sg36
Nsg37
Vstack__camkes_stack_crypto_0_fault_handler_0000_1_crypto_obj
p455
sg39
I4096
sbag3
(g130
g5
Ntp456
Rp457
(dp458
g37
Vcrypto_post_init_ep
p459
sbag3
(g30
g5
Ntp460
Rp461
(dp462
g34
g35
sg36
Nsg37
Vcrypto_frame__camkes_ipc_buffer_crypto_0_control
p463
sg39
I4096
sbag3
(g30
g5
Ntp464
Rp465
(dp466
g34
g35
sg36
Nsg37
Vstack__camkes_stack_crypto_0_fault_handler_0000_0_crypto_obj
p467
sg39
I4096
sbag3
(g64
g5
Ntp468
Rp469
(dp470
g68
Nsg37
Vcrypto_6_0_fault_handler_15_0000_tcb
p471
sg70
I254
sg71
I0
sg72
Nsg73
I0
sg74
g35
sg75
(lp472
sg77
I0
sg78
(dp473
g80
g3
(g81
g5
Ntp474
Rp475
(dp476
g85
I00
sg86
I01
sg87
Nsg88
I0
sg89
I01
sg90
g3
(g30
g5
Ntp477
Rp478
(dp479
g34
g35
sg36
Nsg37
Vcrypto_frame__camkes_ipc_buffer_crypto_0_fault_handler_0000
p480
sg39
I4096
sbsg91
I0
sg92
I01
sg93
Nsg94
Nsg95
Nsbssg96
I254
sg97
I0
sbag3
(g30
g5
Ntp481
Rp482
(dp483
g34
g35
sg36
Nsg37
Vstack__camkes_stack_crypto_crypto_iface_0000_3_crypto_obj
p484
sg39
I4096
sbag3
(g64
g5
Ntp485
Rp486
(dp487
g68
Nsg37
Vcrypto_6_0_control_9_tcb
p488
sg70
I254
sg71
I0
sg72
I2
sg73
I0
sg74
g35
sg75
(lp489
sg77
I0
sg78
(dp490
g80
g3
(g81
g5
Ntp491
Rp492
(dp493
g85
I00
sg86
I01
sg87
Nsg88
I0
sg89
I01
sg90
g461
sg91
I0
sg92
I01
sg93
Nsg94
Nsg95
Nsbssg96
I254
sg97
I0
sbag3
(g30
g5
Ntp494
Rp495
(dp496
g34
g35
sg36
Nsg37
Vstack__camkes_stack_crypto_crypto_iface_0000_2_crypto_obj
p497
sg39
I4096
sbag3
(g214
g5
Ntp498
Rp499
(dp500
g78
(dp501
sg37
Vcrypto_group_bin_pd
p502
sbag3
(g30
g5
Ntp503
Rp504
(dp505
g34
g35
sg36
Nsg37
Vstack__camkes_stack_crypto_0_fault_handler_0000_2_crypto_obj
p506
sg39
I4096
sbag3
(g30
g5
Ntp507
Rp508
(dp509
g34
g35
sg36
Nsg37
Vstack__camkes_stack_crypto_0_fault_handler_0000_3_crypto_obj
p510
sg39
I4096
sbag3
(g106
g5
Ntp511
Rp512
(dp513
g78
(dp514
I1
g3
(g81
g5
Ntp515
Rp516
(dp517
g85
I00
sg86
I00
sg87
Nsg88
I0
sg89
I00
sg90
g486
sg91
I0
sg92
I01
sg93
Nsg94
Nsg95
NsbsI2
g3
(g81
g5
Ntp518
Rp519
(dp520
g85
I01
sg86
I01
sg87
Nsg88
I0
sg89
I01
sg90
g408
sg91
I0
sg92
I01
sg93
Nsg94
I1
sg95
NsbsI3
g3
(g81
g5
Ntp521
Rp522
(dp523
g85
I00
sg86
I00
sg87
Nsg88
I0
sg89
I00
sg90
g420
sg91
I0
sg92
I01
sg93
Nsg94
Nsg95
NsbsI4
g3
(g81
g5
Ntp524
Rp525
(dp526
g85
I01
sg86
I01
sg87
Nsg88
I0
sg89
I01
sg90
g408
sg91
I0
sg92
I01
sg93
Nsg94
I3
sg95
NsbsI5
g3
(g81
g5
Ntp527
Rp528
(dp529
g85
I00
sg86
I00
sg87
Nsg88
I0
sg89
I00
sg90
g469
sg91
I0
sg92
I01
sg93
Nsg94
Nsg95
NsbsI6
g3
(g81
g5
Ntp530
Rp531
(dp532
g85
I01
sg86
I01
sg87
Nsg88
I0
sg89
I01
sg90
g408
sg91
I0
sg92
I01
sg93
Nsg94
Nsg95
NsbsI7
g3
(g81
g5
Ntp533
Rp534
(dp535
g85
I00
sg86
I01
sg87
Nsg88
I0
sg89
I01
sg90
g441
sg91
I0
sg92
I01
sg93
Nsg94
Nsg95
NsbsI8
g3
(g81
g5
Ntp536
Rp537
(dp538
g85
I00
sg86
I01
sg87
Nsg88
I0
sg89
I01
sg90
g437
sg91
I0
sg92
I01
sg93
Nsg94
Nsg95
NsbsI9
g3
(g81
g5
Ntp539
Rp540
(dp541
g85
I00
sg86
I01
sg87
Nsg88
I0
sg89
I01
sg90
g457
sg91
I0
sg92
I01
sg93
Nsg94
Nsg95
NsbsI10
g3
(g81
g5
Ntp542
Rp543
(dp544
g85
I00
sg86
I01
sg87
Nsg88
I0
sg89
I01
sg90
g185
sg91
I0
sg92
I01
sg93
Nsg94
Nsg95
NsbsI11
g3
(g81
g5
Ntp545
Rp546
(dp547
g85
I00
sg86
I00
sg87
Nsg88
I0
sg89
I01
sg90
g512
sg91
I0
sg92
I01
sg93
Nsg94
Nsg95
NsbsI12
NsI13
g3
(g81
g5
Ntp548
Rp549
(dp550
g85
I01
sg86
I00
sg87
Nsg88
I0
sg89
I01
sg90
g351
sg91
I0
sg92
I01
sg93
Nsg94
I1
sg95
NsbsI14
g3
(g81
g5
Ntp551
Rp552
(dp553
g85
I01
sg86
I00
sg87
Nsg88
I0
sg89
I01
sg90
g199
sg91
I0
sg92
I01
sg93
Nsg94
I1
sg95
Nsbssg205
(lp554
g546
asg37
Vcrypto_cnode
p555
sg208
g209
sbag3
(g30
g5
Ntp556
Rp557
(dp558
g34
g35
sg36
Nsg37
Vstack__camkes_stack_crypto_0_control_0_crypto_obj
p559
sg39
I4096
sbag478
atp560
Rp561
sVconn4.conn8
p562
g11
((lp563
g199
atp564
Rp565
sVconn3.conn7
p566
g11
((lp567
g351
atp568
Rp569
sVconn2.conn5
p570
g11
((lp571
g185
atp572
Rp573
sg3
(g14
g15
Vmodtx
p574
tp575
Rp576
(dp577
g20
I25
sg21
I89
sg22
I24
sg23
g27
sg28
I598
sbg11
((lp578
g3
(g30
g5
Ntp579
Rp580
(dp581
g34
g35
sg36
Nsg37
Vmodtx_frame__camkes_ipc_buffer_modtx_0_control
p582
sg39
I4096
sbag3
(g64
g5
Ntp583
Rp584
(dp585
g68
Nsg37
Vmodtx_5_0_control_9_tcb
p586
sg70
I254
sg71
I0
sg72
I2
sg73
I0
sg74
g35
sg75
(lp587
sg77
I0
sg78
(dp588
g80
g3
(g81
g5
Ntp589
Rp590
(dp591
g85
I00
sg86
I01
sg87
Nsg88
I0
sg89
I01
sg90
g580
sg91
I0
sg92
I01
sg93
Nsg94
Nsg95
Nsbssg96
I254
sg97
I0
sbag3
(g30
g5
Ntp592
Rp593
(dp594
g34
g35
sg36
Nsg37
Vmodtx_frame__camkes_ipc_buffer_modtx_modtx_iface_0000
p595
sg39
I4096
sbag3
(g214
g5
Ntp596
Rp597
(dp598
g78
(dp599
sg37
Vmodtx_group_bin_pd
p600
sbag3
(g64
g5
Ntp601
Rp602
(dp603
g68
Nsg37
Vmodtx_5_modtx_iface_11_0000_tcb
p604
sg70
I254
sg71
I0
sg72
I4
sg73
I0
sg74
g35
sg75
(lp605
sg77
I0
sg78
(dp606
g80
g3
(g81
g5
Ntp607
Rp608
(dp609
g85
I00
sg86
I01
sg87
Nsg88
I0
sg89
I01
sg90
g593
sg91
I0
sg92
I01
sg93
Nsg94
Nsg95
Nsbssg96
I254
sg97
I0
sbag3
(g30
g5
Ntp610
Rp611
(dp612
g34
g35
sg36
Nsg37
Vstack__camkes_stack_modtx_modtx_iface_0000_3_modtx_obj
p613
sg39
I4096
sbag3
(g30
g5
Ntp614
Rp615
(dp616
g34
g35
sg36
Nsg37
Vstack__camkes_stack_modtx_modtx_iface_0000_0_modtx_obj
p617
sg39
I4096
sbag3
(g30
g5
Ntp618
Rp619
(dp620
g34
g35
sg36
Nsg37
Vmodtx_frame__camkes_ipc_buffer_modtx_0_fault_handler_0000
p621
sg39
I4096
sbag3
(g130
g5
Ntp622
Rp623
(dp624
g37
Vmodtx_fault_ep
p625
sbag3
(g64
g5
Ntp626
Rp627
(dp628
g68
Nsg37
Vmodtx_5_0_fault_handler_15_0000_tcb
p629
sg70
I254
sg71
I0
sg72
Nsg73
I0
sg74
g35
sg75
(lp630
sg77
I0
sg78
(dp631
g80
g3
(g81
g5
Ntp632
Rp633
(dp634
g85
I00
sg86
I01
sg87
Nsg88
I0
sg89
I01
sg90
g619
sg91
I0
sg92
I01
sg93
Nsg94
Nsg95
Nsbssg96
I254
sg97
I0
sbag3
(g30
g5
Ntp635
Rp636
(dp637
g34
g35
sg36
Nsg37
Vstack__camkes_stack_modtx_modtx_iface_0000_1_modtx_obj
p638
sg39
I4096
sbag3
(g130
g5
Ntp639
Rp640
(dp641
g37
Vmodtx_post_init_ep
p642
sbag3
(g30
g5
Ntp643
Rp644
(dp645
g34
g35
sg36
Nsg37
Vstack__camkes_stack_modtx_0_control_0_modtx_obj
p646
sg39
I4096
sbag3
(g30
g5
Ntp647
Rp648
(dp649
g34
g35
sg36
Nsg37
Vstack__camkes_stack_modtx_0_fault_handler_0000_1_modtx_obj
p650
sg39
I4096
sbag3
(g30
g5
Ntp651
Rp652
(dp653
g34
g35
sg36
Nsg37
Vstack__camkes_stack_modtx_modtx_iface_0000_2_modtx_obj
p654
sg39
I4096
sbag3
(g30
g5
Ntp655
Rp656
(dp657
g34
g35
sg36
Nsg37
Vstack__camkes_stack_modtx_0_fault_handler_0000_0_modtx_obj
p658
sg39
I4096
sbag3
(g30
g5
Ntp659
Rp660
(dp661
g34
g35
sg36
Nsg37
Vstack__camkes_stack_modtx_0_control_1_modtx_obj
p662
sg39
I4096
sbag3
(g30
g5
Ntp663
Rp664
(dp665
g34
g35
sg36
Nsg37
Vstack__camkes_stack_modtx_0_control_2_modtx_obj
p666
sg39
I4096
sbag3
(g30
g5
Ntp667
Rp668
(dp669
g34
g35
sg36
Nsg37
Vstack__camkes_stack_modtx_0_control_3_modtx_obj
p670
sg39
I4096
sbag3
(g130
g5
Ntp671
Rp672
(dp673
g37
Vmodtx_pre_init_ep
p674
sbag3
(g130
g5
Ntp675
Rp676
(dp677
g37
Vmodtx_interface_init_ep
p678
sbag3
(g106
g5
Ntp679
Rp680
(dp681
g78
(dp682
I1
g3
(g81
g5
Ntp683
Rp684
(dp685
g85
I00
sg86
I00
sg87
Nsg88
I0
sg89
I00
sg90
g584
sg91
I0
sg92
I01
sg93
Nsg94
Nsg95
NsbsI2
g3
(g81
g5
Ntp686
Rp687
(dp688
g85
I01
sg86
I01
sg87
Nsg88
I0
sg89
I01
sg90
g623
sg91
I0
sg92
I01
sg93
Nsg94
I1
sg95
NsbsI3
g3
(g81
g5
Ntp689
Rp690
(dp691
g85
I00
sg86
I00
sg87
Nsg88
I0
sg89
I00
sg90
g602
sg91
I0
sg92
I01
sg93
Nsg94
Nsg95
NsbsI4
g3
(g81
g5
Ntp692
Rp693
(dp694
g85
I01
sg86
I01
sg87
Nsg88
I0
sg89
I01
sg90
g623
sg91
I0
sg92
I01
sg93
Nsg94
I3
sg95
NsbsI5
g3
(g81
g5
Ntp695
Rp696
(dp697
g85
I00
sg86
I00
sg87
Nsg88
I0
sg89
I00
sg90
g627
sg91
I0
sg92
I01
sg93
Nsg94
Nsg95
NsbsI6
g3
(g81
g5
Ntp698
Rp699
(dp700
g85
I01
sg86
I01
sg87
Nsg88
I0
sg89
I01
sg90
g623
sg91
I0
sg92
I01
sg93
Nsg94
Nsg95
NsbsI7
g3
(g81
g5
Ntp701
Rp702
(dp703
g85
I00
sg86
I01
sg87
Nsg88
I0
sg89
I01
sg90
g672
sg91
I0
sg92
I01
sg93
Nsg94
Nsg95
NsbsI8
g3
(g81
g5
Ntp704
Rp705
(dp706
g85
I00
sg86
I01
sg87
Nsg88
I0
sg89
I01
sg90
g676
sg91
I0
sg92
I01
sg93
Nsg94
Nsg95
NsbsI9
g3
(g81
g5
Ntp707
Rp708
(dp709
g85
I00
sg86
I01
sg87
Nsg88
I0
sg89
I01
sg90
g640
sg91
I0
sg92
I01
sg93
Nsg94
Nsg95
NsbsI10
g3
(g81
g5
Ntp710
Rp711
(dp712
g85
I01
sg86
I00
sg87
Nsg88
I0
sg89
I01
sg90
g185
sg91
I0
sg92
I01
sg93
Nsg94
I1
sg95
NsbsI11
g3
(g81
g5
Ntp713
Rp714
(dp715
g85
I01
sg86
I00
sg87
Nsg88
I0
sg89
I01
sg90
g192
sg91
I0
sg92
I01
sg93
Nsg94
I1
sg95
NsbsI12
g3
(g81
g5
Ntp716
Rp717
(dp718
g85
I00
sg86
I01
sg87
Nsg88
I0
sg89
I01
sg90
g351
sg91
I0
sg92
I01
sg93
Nsg94
Nsg95
NsbsI13
g3
(g81
g5
Ntp719
Rp720
(dp721
g85
I00
sg86
I00
sg87
Nsg88
I0
sg89
I01
sg90
g680
sg91
I0
sg92
I01
sg93
Nsg94
Nsg95
NsbsI14
Nssg205
(lp722
g720
asg37
Vmodtx_cnode
p723
sg208
g209
sbag3
(g30
g5
Ntp724
Rp725
(dp726
g34
g35
sg36
Nsg37
Vstack__camkes_stack_modtx_0_fault_handler_0000_2_modtx_obj
p727
sg39
I4096
sbag3
(g30
g5
Ntp728
Rp729
(dp730
g34
g35
sg36
Nsg37
Vstack__camkes_stack_modtx_0_fault_handler_0000_3_modtx_obj
p731
sg39
I4096
sbatp732
Rp733
ssS'name_to_object'
p734
(dp735
g43
g41
sg625
g623
sg63
g61
sg439
g437
sg47
g45
sg463
g461
sg418
g416
sg250
g248
sg467
g465
sg502
g499
sg621
g619
sg316
g314
sg55
g53
sg173
g171
sg723
g680
sg642
g640
sg658
g656
sg459
g457
sg443
g441
sg134
g132
sg69
g66
sg274
g272
sg506
g504
sg288
g286
sg435
g433
sg213
g211
sg358
g256
sg638
g636
sg391
g389
sg246
g244
sg480
g478
sg166
g164
sg105
g103
sg582
g580
sg617
g615
sg307
g305
sg727
g725
sg399
g397
sg431
g429
sg613
g611
sg414
g412
sg375
g372
sg223
g221
sg370
g368
sg387
g385
sg451
g449
sg422
g420
sg326
g324
sg488
g486
sg484
g482
sg654
g652
sg670
g668
sg666
g664
sg59
g57
sg447
g445
sg383
g381
sg604
g602
sg366
g364
sg410
g408
sg595
g593
sg297
g295
sg333
g331
sg674
g672
sg646
g644
sg51
g49
sg101
g99
sg281
g279
sg510
g508
sg150
g148
sg559
g557
sg650
g648
sg180
g178
sg254
g252
sg201
g199
sg219
g216
sg395
g393
sg662
g660
sg497
g495
sg600
g597
sg126
g124
sg555
g512
sg731
g729
sg194
g192
sg187
g185
sg362
g360
sg227
g225
sg231
g229
sg141
g139
sg678
g676
sg455
g453
sg629
g627
sg353
g351
sg117
g115
sg379
g377
sg265
g263
sg471
g469
sg340
g338
sg586
g584
sg207
g108
sg38
g32
ssS'prefix'
p736
Vobj
p737
sS'counter'
p738
I100
sS'spec'
p739
g3
(ccapdl.Spec
Spec
p740
g5
Ntp741
Rp742
(dp743
S'objs'
p744
g11
((lp745
g593
ag185
ag132
ag615
ag504
ag331
ag627
ag139
ag597
ag324
ag602
ag377
ag729
ag580
ag584
ag211
ag644
ag619
ag623
ag437
ag441
ag457
ag192
ag557
ag57
ag648
ag656
ag295
ag381
ag225
ag53
ag263
ag279
ag725
ag286
ag372
ag32
ag636
ag652
ag611
ag49
ag248
ag469
ag272
ag66
ag416
ag103
ag351
ag499
ag338
ag461
ag680
ag508
ag412
ag360
ag148
ag108
ag389
ag99
ag393
ag115
ag420
ag124
ag672
ag397
ag229
ag676
ag244
ag640
ag252
ag221
ag45
ag364
ag429
ag433
ag41
ag61
ag171
ag368
ag199
ag486
ag445
ag449
ag453
ag408
ag465
ag216
ag482
ag495
ag256
ag385
ag660
ag664
ag668
ag314
ag164
ag178
ag512
ag305
ag478
atp746
Rp747
sS'_arch'
p748
(icapdl.util
X64Arch
p749
(dp750
bsbsbsS'addr_spaces'
p751
(dp752
g18
g3
(ccapdl.Allocator
AddressSpaceAllocator
p753
g5
Ntp754
Rp755
(dp756
S'vspace_root'
p757
g216
sS'_symbols'
p758
(dp759
V_camkes_stack_signtx_signtx_iface_0000
p760
((lp761
I4096
aI4096
aI4096
aI4096
aI4096
aI4096
a(lp762
Nag3
(g81
g5
Ntp763
Rp764
(dp765
g85
I00
sg86
I01
sg87
Nsg88
I0
sg89
I01
sg90
g211
sg91
I0
sg92
I01
sg93
Nsg94
Nsg95
Nsbag3
(g81
g5
Ntp766
Rp767
(dp768
g85
I00
sg86
I01
sg87
Nsg88
I0
sg89
I01
sg90
g45
sg91
I0
sg92
I01
sg93
Nsg94
Nsg95
Nsbag3
(g81
g5
Ntp769
Rp770
(dp771
g85
I00
sg86
I01
sg87
Nsg88
I0
sg89
I01
sg90
g53
sg91
I0
sg92
I01
sg93
Nsg94
Nsg95
Nsbag3
(g81
g5
Ntp772
Rp773
(dp774
g85
I00
sg86
I01
sg87
Nsg88
I0
sg89
I01
sg90
g229
sg91
I0
sg92
I01
sg93
Nsg94
Nsg95
NsbaNatp775
sV_camkes_stack_signtx_0_fault_handler_0000
p776
((lp777
I4096
aI4096
aI4096
aI4096
aI4096
aI4096
a(lp778
Nag3
(g81
g5
Ntp779
Rp780
(dp781
g85
I00
sg86
I01
sg87
Nsg88
I0
sg89
I01
sg90
g32
sg91
I0
sg92
I01
sg93
Nsg94
Nsg95
Nsbag3
(g81
g5
Ntp782
Rp783
(dp784
g85
I00
sg86
I01
sg87
Nsg88
I0
sg89
I01
sg90
g61
sg91
I0
sg92
I01
sg93
Nsg94
Nsg95
Nsbag3
(g81
g5
Ntp785
Rp786
(dp787
g85
I00
sg86
I01
sg87
Nsg88
I0
sg89
I01
sg90
g225
sg91
I0
sg92
I01
sg93
Nsg94
Nsg95
Nsbag3
(g81
g5
Ntp788
Rp789
(dp790
g85
I00
sg86
I01
sg87
Nsg88
I0
sg89
I01
sg90
g221
sg91
I0
sg92
I01
sg93
Nsg94
Nsg95
NsbaNatp791
sV_camkes_ipc_buffer_signtx_0_control
p792
((lp793
I4096
aI4096
aI4096
a(lp794
Nag3
(g81
g5
Ntp795
Rp796
(dp797
g85
I00
sg86
I01
sg87
Nsg88
I0
sg89
I01
sg90
g124
sg91
I0
sg92
I01
sg93
Nsg94
Nsg95
NsbaNatp798
sV_camkes_stack_signtx_0_control
p799
((lp800
I4096
aI4096
aI4096
aI4096
aI4096
aI4096
a(lp801
Nag3
(g81
g5
Ntp802
Rp803
(dp804
g85
I00
sg86
I01
sg87
Nsg88
I0
sg89
I01
sg90
g57
sg91
I0
sg92
I01
sg93
Nsg94
Nsg95
Nsbag3
(g81
g5
Ntp805
Rp806
(dp807
g85
I00
sg86
I01
sg87
Nsg88
I0
sg89
I01
sg90
g49
sg91
I0
sg92
I01
sg93
Nsg94
Nsg95
Nsbag3
(g81
g5
Ntp808
Rp809
(dp810
g85
I00
sg86
I01
sg87
Nsg88
I0
sg89
I01
sg90
g103
sg91
I0
sg92
I01
sg93
Nsg94
Nsg95
Nsbag3
(g81
g5
Ntp811
Rp812
(dp813
g85
I00
sg86
I01
sg87
Nsg88
I0
sg89
I01
sg90
g99
sg91
I0
sg92
I01
sg93
Nsg94
Nsg95
NsbaNatp814
sV_camkes_ipc_buffer_signtx_signtx_iface_0000
p815
((lp816
I4096
aI4096
aI4096
a(lp817
Nag3
(g81
g5
Ntp818
Rp819
(dp820
g85
I00
sg86
I01
sg87
Nsg88
I0
sg89
I01
sg90
g148
sg91
I0
sg92
I01
sg93
Nsg94
Nsg95
NsbaNatp821
sVcamkes_dma_pool
p822
((lp823
(lp824
tp825
sV_camkes_ipc_buffer_signtx_0_fault_handler_0000
p826
((lp827
I4096
aI4096
aI4096
a(lp828
Nag3
(g81
g5
Ntp829
Rp830
(dp831
g85
I00
sg86
I01
sg87
Nsg88
I0
sg89
I01
sg90
g41
sg91
I0
sg92
I01
sg93
Nsg94
Nsg95
NsbaNatp832
ssg37
Vsigntx_group_bin
p833
sS'_regions'
p834
(dp835
sbsg240
g3
(g753
g5
Ntp836
Rp837
(dp838
g757
g372
sg758
(dp839
V_camkes_ipc_buffer_modchk_0_fault_handler_0000
p840
((lp841
I4096
aI4096
aI4096
a(lp842
Nag3
(g81
g5
Ntp843
Rp844
(dp845
g85
I00
sg86
I01
sg87
Nsg88
I0
sg89
I01
sg90
g314
sg91
I0
sg92
I01
sg93
Nsg94
Nsg95
NsbaNatp846
sV_camkes_stack_modchk_modchk_iface_0000
p847
((lp848
I4096
aI4096
aI4096
aI4096
aI4096
aI4096
a(lp849
Nag3
(g81
g5
Ntp850
Rp851
(dp852
g85
I00
sg86
I01
sg87
Nsg88
I0
sg89
I01
sg90
g252
sg91
I0
sg92
I01
sg93
Nsg94
Nsg95
Nsbag3
(g81
g5
Ntp853
Rp854
(dp855
g85
I00
sg86
I01
sg87
Nsg88
I0
sg89
I01
sg90
g360
sg91
I0
sg92
I01
sg93
Nsg94
Nsg95
Nsbag3
(g81
g5
Ntp856
Rp857
(dp858
g85
I00
sg86
I01
sg87
Nsg88
I0
sg89
I01
sg90
g368
sg91
I0
sg92
I01
sg93
Nsg94
Nsg95
Nsbag3
(g81
g5
Ntp859
Rp860
(dp861
g85
I00
sg86
I01
sg87
Nsg88
I0
sg89
I01
sg90
g377
sg91
I0
sg92
I01
sg93
Nsg94
Nsg95
NsbaNatp862
sV_camkes_ipc_buffer_modchk_modchk_iface_0000
p863
((lp864
I4096
aI4096
aI4096
a(lp865
Nag3
(g81
g5
Ntp866
Rp867
(dp868
g85
I00
sg86
I01
sg87
Nsg88
I0
sg89
I01
sg90
g295
sg91
I0
sg92
I01
sg93
Nsg94
Nsg95
NsbaNatp869
sV_camkes_ipc_buffer_modchk_0_control
p870
((lp871
I4096
aI4096
aI4096
a(lp872
Nag3
(g81
g5
Ntp873
Rp874
(dp875
g85
I00
sg86
I01
sg87
Nsg88
I0
sg89
I01
sg90
g272
sg91
I0
sg92
I01
sg93
Nsg94
Nsg95
NsbaNatp876
sVcamkes_dma_pool
p877
((lp878
(lp879
tp880
sV_camkes_stack_modchk_0_control
p881
((lp882
I4096
aI4096
aI4096
aI4096
aI4096
aI4096
a(lp883
Nag3
(g81
g5
Ntp884
Rp885
(dp886
g85
I00
sg86
I01
sg87
Nsg88
I0
sg89
I01
sg90
g244
sg91
I0
sg92
I01
sg93
Nsg94
Nsg95
Nsbag3
(g81
g5
Ntp887
Rp888
(dp889
g85
I00
sg86
I01
sg87
Nsg88
I0
sg89
I01
sg90
g397
sg91
I0
sg92
I01
sg93
Nsg94
Nsg95
Nsbag3
(g81
g5
Ntp890
Rp891
(dp892
g85
I00
sg86
I01
sg87
Nsg88
I0
sg89
I01
sg90
g248
sg91
I0
sg92
I01
sg93
Nsg94
Nsg95
Nsbag3
(g81
g5
Ntp893
Rp894
(dp895
g85
I00
sg86
I01
sg87
Nsg88
I0
sg89
I01
sg90
g393
sg91
I0
sg92
I01
sg93
Nsg94
Nsg95
NsbaNatp896
sV_camkes_stack_modchk_0_fault_handler_0000
p897
((lp898
I4096
aI4096
aI4096
aI4096
aI4096
aI4096
a(lp899
Nag3
(g81
g5
Ntp900
Rp901
(dp902
g85
I00
sg86
I01
sg87
Nsg88
I0
sg89
I01
sg90
g364
sg91
I0
sg92
I01
sg93
Nsg94
Nsg95
Nsbag3
(g81
g5
Ntp903
Rp904
(dp905
g85
I00
sg86
I01
sg87
Nsg88
I0
sg89
I01
sg90
g381
sg91
I0
sg92
I01
sg93
Nsg94
Nsg95
Nsbag3
(g81
g5
Ntp906
Rp907
(dp908
g85
I00
sg86
I01
sg87
Nsg88
I0
sg89
I01
sg90
g389
sg91
I0
sg92
I01
sg93
Nsg94
Nsg95
Nsbag3
(g81
g5
Ntp909
Rp910
(dp911
g85
I00
sg86
I01
sg87
Nsg88
I0
sg89
I01
sg90
g385
sg91
I0
sg92
I01
sg93
Nsg94
Nsg95
NsbaNatp912
ssg37
Vmodchk_group_bin
p913
sg834
(dp914
sbsg404
g3
(g753
g5
Ntp915
Rp916
(dp917
g757
g499
sg758
(dp918
V_camkes_stack_crypto_0_fault_handler_0000
p919
((lp920
I4096
aI4096
aI4096
aI4096
aI4096
aI4096
a(lp921
Nag3
(g81
g5
Ntp922
Rp923
(dp924
g85
I00
sg86
I01
sg87
Nsg88
I0
sg89
I01
sg90
g465
sg91
I0
sg92
I01
sg93
Nsg94
Nsg95
Nsbag3
(g81
g5
Ntp925
Rp926
(dp927
g85
I00
sg86
I01
sg87
Nsg88
I0
sg89
I01
sg90
g453
sg91
I0
sg92
I01
sg93
Nsg94
Nsg95
Nsbag3
(g81
g5
Ntp928
Rp929
(dp930
g85
I00
sg86
I01
sg87
Nsg88
I0
sg89
I01
sg90
g504
sg91
I0
sg92
I01
sg93
Nsg94
Nsg95
Nsbag3
(g81
g5
Ntp931
Rp932
(dp933
g85
I00
sg86
I01
sg87
Nsg88
I0
sg89
I01
sg90
g508
sg91
I0
sg92
I01
sg93
Nsg94
Nsg95
NsbaNatp934
sV_camkes_stack_crypto_crypto_iface_0000
p935
((lp936
I4096
aI4096
aI4096
aI4096
aI4096
aI4096
a(lp937
Nag3
(g81
g5
Ntp938
Rp939
(dp940
g85
I00
sg86
I01
sg87
Nsg88
I0
sg89
I01
sg90
g449
sg91
I0
sg92
I01
sg93
Nsg94
Nsg95
Nsbag3
(g81
g5
Ntp941
Rp942
(dp943
g85
I00
sg86
I01
sg87
Nsg88
I0
sg89
I01
sg90
g445
sg91
I0
sg92
I01
sg93
Nsg94
Nsg95
Nsbag3
(g81
g5
Ntp944
Rp945
(dp946
g85
I00
sg86
I01
sg87
Nsg88
I0
sg89
I01
sg90
g495
sg91
I0
sg92
I01
sg93
Nsg94
Nsg95
Nsbag3
(g81
g5
Ntp947
Rp948
(dp949
g85
I00
sg86
I01
sg87
Nsg88
I0
sg89
I01
sg90
g482
sg91
I0
sg92
I01
sg93
Nsg94
Nsg95
NsbaNatp950
sV_camkes_stack_crypto_0_control
p951
((lp952
I4096
aI4096
aI4096
aI4096
aI4096
aI4096
a(lp953
Nag3
(g81
g5
Ntp954
Rp955
(dp956
g85
I00
sg86
I01
sg87
Nsg88
I0
sg89
I01
sg90
g557
sg91
I0
sg92
I01
sg93
Nsg94
Nsg95
Nsbag3
(g81
g5
Ntp957
Rp958
(dp959
g85
I00
sg86
I01
sg87
Nsg88
I0
sg89
I01
sg90
g412
sg91
I0
sg92
I01
sg93
Nsg94
Nsg95
Nsbag3
(g81
g5
Ntp960
Rp961
(dp962
g85
I00
sg86
I01
sg87
Nsg88
I0
sg89
I01
sg90
g433
sg91
I0
sg92
I01
sg93
Nsg94
Nsg95
Nsbag3
(g81
g5
Ntp963
Rp964
(dp965
g85
I00
sg86
I01
sg87
Nsg88
I0
sg89
I01
sg90
g429
sg91
I0
sg92
I01
sg93
Nsg94
Nsg95
NsbaNatp966
sVcamkes_dma_pool
p967
((lp968
(lp969
tp970
sV_camkes_ipc_buffer_crypto_0_fault_handler_0000
p971
((lp972
I4096
aI4096
aI4096
a(lp973
Nag3
(g81
g5
Ntp974
Rp975
(dp976
g85
I00
sg86
I01
sg87
Nsg88
I0
sg89
I01
sg90
g478
sg91
I0
sg92
I01
sg93
Nsg94
Nsg95
NsbaNatp977
sV_camkes_ipc_buffer_crypto_crypto_iface_0000
p978
((lp979
I4096
aI4096
aI4096
a(lp980
Nag3
(g81
g5
Ntp981
Rp982
(dp983
g85
I00
sg86
I01
sg87
Nsg88
I0
sg89
I01
sg90
g416
sg91
I0
sg92
I01
sg93
Nsg94
Nsg95
NsbaNatp984
sV_camkes_ipc_buffer_crypto_0_control
p985
((lp986
I4096
aI4096
aI4096
a(lp987
Nag3
(g81
g5
Ntp988
Rp989
(dp990
g85
I00
sg86
I01
sg87
Nsg88
I0
sg89
I01
sg90
g461
sg91
I0
sg92
I01
sg93
Nsg94
Nsg95
NsbaNatp991
ssg37
Vcrypto_group_bin
p992
sg834
(dp993
sbsg576
g3
(g753
g5
Ntp994
Rp995
(dp996
g757
g597
sg758
(dp997
V_camkes_ipc_buffer_modtx_0_fault_handler_0000
p998
((lp999
I4096
aI4096
aI4096
a(lp1000
Nag3
(g81
g5
Ntp1001
Rp1002
(dp1003
g85
I00
sg86
I01
sg87
Nsg88
I0
sg89
I01
sg90
g619
sg91
I0
sg92
I01
sg93
Nsg94
Nsg95
NsbaNatp1004
sV_camkes_stack_modtx_0_control
p1005
((lp1006
I4096
aI4096
aI4096
aI4096
aI4096
aI4096
a(lp1007
Nag3
(g81
g5
Ntp1008
Rp1009
(dp1010
g85
I00
sg86
I01
sg87
Nsg88
I0
sg89
I01
sg90
g644
sg91
I0
sg92
I01
sg93
Nsg94
Nsg95
Nsbag3
(g81
g5
Ntp1011
Rp1012
(dp1013
g85
I00
sg86
I01
sg87
Nsg88
I0
sg89
I01
sg90
g660
sg91
I0
sg92
I01
sg93
Nsg94
Nsg95
Nsbag3
(g81
g5
Ntp1014
Rp1015
(dp1016
g85
I00
sg86
I01
sg87
Nsg88
I0
sg89
I01
sg90
g664
sg91
I0
sg92
I01
sg93
Nsg94
Nsg95
Nsbag3
(g81
g5
Ntp1017
Rp1018
(dp1019
g85
I00
sg86
I01
sg87
Nsg88
I0
sg89
I01
sg90
g668
sg91
I0
sg92
I01
sg93
Nsg94
Nsg95
NsbaNatp1020
sVcamkes_dma_pool
p1021
((lp1022
(lp1023
tp1024
sV_camkes_stack_modtx_modtx_iface_0000
p1025
((lp1026
I4096
aI4096
aI4096
aI4096
aI4096
aI4096
a(lp1027
Nag3
(g81
g5
Ntp1028
Rp1029
(dp1030
g85
I00
sg86
I01
sg87
Nsg88
I0
sg89
I01
sg90
g615
sg91
I0
sg92
I01
sg93
Nsg94
Nsg95
Nsbag3
(g81
g5
Ntp1031
Rp1032
(dp1033
g85
I00
sg86
I01
sg87
Nsg88
I0
sg89
I01
sg90
g636
sg91
I0
sg92
I01
sg93
Nsg94
Nsg95
Nsbag3
(g81
g5
Ntp1034
Rp1035
(dp1036
g85
I00
sg86
I01
sg87
Nsg88
I0
sg89
I01
sg90
g652
sg91
I0
sg92
I01
sg93
Nsg94
Nsg95
Nsbag3
(g81
g5
Ntp1037
Rp1038
(dp1039
g85
I00
sg86
I01
sg87
Nsg88
I0
sg89
I01
sg90
g611
sg91
I0
sg92
I01
sg93
Nsg94
Nsg95
NsbaNatp1040
sV_camkes_stack_modtx_0_fault_handler_0000
p1041
((lp1042
I4096
aI4096
aI4096
aI4096
aI4096
aI4096
a(lp1043
Nag3
(g81
g5
Ntp1044
Rp1045
(dp1046
g85
I00
sg86
I01
sg87
Nsg88
I0
sg89
I01
sg90
g656
sg91
I0
sg92
I01
sg93
Nsg94
Nsg95
Nsbag3
(g81
g5
Ntp1047
Rp1048
(dp1049
g85
I00
sg86
I01
sg87
Nsg88
I0
sg89
I01
sg90
g648
sg91
I0
sg92
I01
sg93
Nsg94
Nsg95
Nsbag3
(g81
g5
Ntp1050
Rp1051
(dp1052
g85
I00
sg86
I01
sg87
Nsg88
I0
sg89
I01
sg90
g725
sg91
I0
sg92
I01
sg93
Nsg94
Nsg95
Nsbag3
(g81
g5
Ntp1053
Rp1054
(dp1055
g85
I00
sg86
I01
sg87
Nsg88
I0
sg89
I01
sg90
g729
sg91
I0
sg92
I01
sg93
Nsg94
Nsg95
NsbaNatp1056
sV_camkes_ipc_buffer_modtx_0_control
p1057
((lp1058
I4096
aI4096
aI4096
a(lp1059
Nag3
(g81
g5
Ntp1060
Rp1061
(dp1062
g85
I00
sg86
I01
sg87
Nsg88
I0
sg89
I01
sg90
g580
sg91
I0
sg92
I01
sg93
Nsg94
Nsg95
NsbaNatp1063
sV_camkes_ipc_buffer_modtx_modtx_iface_0000
p1064
((lp1065
I4096
aI4096
aI4096
a(lp1066
Nag3
(g81
g5
Ntp1067
Rp1068
(dp1069
g85
I00
sg86
I01
sg87
Nsg88
I0
sg89
I01
sg90
g593
sg91
I0
sg92
I01
sg93
Nsg94
Nsg95
NsbaNatp1070
ssg37
Vmodtx_group_bin
p1071
sg834
(dp1072
sbssS'pds'
p1073
(dp1074
g18
g216
sg240
g372
sg404
g499
sg576
g597
ssS'cspaces'
p1075
(dp1076
g18
g3
(ccapdl.Allocator
CSpaceAllocator
p1077
g5
Ntp1078
Rp1079
(dp1080
S'slot'
p1081
I15
sS'cnode'
p1082
g108
sbsg240
g3
(g1077
g5
Ntp1083
Rp1084
(dp1085
g1081
I15
sg1082
g256
sbsg404
g3
(g1077
g5
Ntp1086
Rp1087
(dp1088
g1081
I15
sg1082
g512
sbsg576
g3
(g1077
g5
Ntp1089
Rp1090
(dp1091
g1081
I15
sg1082
g680
sbssb.